target datalayout = "e-m:e-p270:32:32-p271:32:32-p272:64:64-i64:64-i128:128-f80:128-n8:16:32:64-S128"
target triple = "x86_64-pc-linux-gnu"

%struct.ObjectAddress = type { i32, i32, i32 }
%struct.nameData = type { [64 x i8] }
%struct.HeapTupleData = type { i32, %struct.ItemPointerData, i32, ptr }
%struct.ItemPointerData = type { %struct.BlockIdData, i16 }
%struct.BlockIdData = type { i16, i16 }
%struct.HeapTupleHeaderData = type { %union.anon, %struct.ItemPointerData, i16, i16, i8, [0 x i8] }
%union.anon = type { %struct.HeapTupleFields }
%struct.HeapTupleFields = type { i32, i32, %union.anon.1 }
%union.anon.1 = type { i32 }
%struct.RelationData = type { %struct.RelFileLocator, ptr, i32, i32, i8, i8, i8, i8, i8, i32, i32, i32, i32, ptr, ptr, i32, %struct.LockInfoData, ptr, ptr, ptr, ptr, ptr, i8, ptr, ptr, ptr, ptr, ptr, ptr, i32, ptr, i8, ptr, ptr, i32, i8, i32, ptr, i8, ptr, ptr, ptr, ptr, ptr, ptr, ptr, i32, ptr, ptr, ptr, ptr, ptr, ptr, ptr, ptr, ptr, ptr, ptr, ptr, ptr, ptr, ptr, ptr, ptr, ptr, ptr, i32, i8, ptr }
%struct.RelFileLocator = type { i32, i32, i32 }
%struct.LockInfoData = type { %struct.LockRelId }
%struct.LockRelId = type { i32, i32 }
%struct.FormData_pg_foreign_server = type { i32, %struct.nameData, i32, i32 }
%struct.ForeignDataWrapper = type { i32, i32, ptr, i32, i32, ptr }
%struct.AlterForeignServerStmt = type { i32, ptr, ptr, ptr, i8 }

@.str.1 = private unnamed_addr constant [14 x i8] c"foreigncmds.c\00", align 1
@.str.6 = private unnamed_addr constant [27 x i8] c"server \22%s\22 does not exist\00", align 1
@object_access_hook = external global ptr, align 8
@__func__.AlterForeignServer = private unnamed_addr constant [19 x i8] c"AlterForeignServer\00", align 1

; Function Attrs: inlinehint nounwind uwtable
define internal ptr @DatumGetPointer(i64 noundef %0) #6 {
  %2 = alloca i64, align 8
  store i64 %0, ptr %2, align 8
  %3 = load i64, ptr %2, align 8
  %4 = inttoptr i64 %3 to ptr
  ret ptr %4
}

; Function Attrs: inlinehint nounwind uwtable
define internal i64 @PointerGetDatum(ptr noundef %0) #6 {
  %2 = alloca ptr, align 8
  store ptr %0, ptr %2, align 8
  %3 = load ptr, ptr %2, align 8
  %4 = ptrtoint ptr %3 to i64
  ret i64 %4
}

; Function Attrs: inlinehint nounwind uwtable
define internal ptr @GETSTRUCT(ptr noundef %0) #6 {
  %2 = alloca ptr, align 8
  store ptr %0, ptr %2, align 8
  %3 = load ptr, ptr %2, align 8
  %4 = getelementptr inbounds nuw %struct.HeapTupleData, ptr %3, i32 0, i32 3
  %5 = load ptr, ptr %4, align 8
  %6 = load ptr, ptr %2, align 8
  %7 = getelementptr inbounds nuw %struct.HeapTupleData, ptr %6, i32 0, i32 3
  %8 = load ptr, ptr %7, align 8
  %9 = getelementptr inbounds nuw %struct.HeapTupleHeaderData, ptr %8, i32 0, i32 4
  %10 = load i8, ptr %9, align 2
  %11 = zext i8 %10 to i32
  %12 = sext i32 %11 to i64
  %13 = getelementptr inbounds i8, ptr %5, i64 %12
  ret ptr %13
}

; Function Attrs: inlinehint nounwind uwtable
define internal i64 @CStringGetDatum(ptr noundef %0) #6 {
  %2 = alloca ptr, align 8
  store ptr %0, ptr %2, align 8
  %3 = load ptr, ptr %2, align 8
  %4 = call i64 @PointerGetDatum(ptr noundef %3)
  ret i64 %4
}

; Function Attrs: nounwind uwtable
define dso_local { i64, i32 } @AlterForeignServer(ptr noundef %0) #0 {
  %2 = alloca %struct.ObjectAddress, align 4
  %3 = alloca ptr, align 8
  %4 = alloca ptr, align 8
  %5 = alloca ptr, align 8
  %6 = alloca [8 x i64], align 16
  %7 = alloca [8 x i8], align 1
  %8 = alloca [8 x i8], align 1
  %9 = alloca i32, align 4
  %10 = alloca ptr, align 8
  %11 = alloca ptr, align 8
  %12 = alloca i64, align 8
  %13 = alloca i8, align 1
  %14 = alloca { i64, i32 }, align 8
  store ptr %0, ptr %3, align 8
  call void @llvm.lifetime.start.p0(i64 8, ptr %4) #9
  call void @llvm.lifetime.start.p0(i64 8, ptr %5) #9
  call void @llvm.lifetime.start.p0(i64 64, ptr %6) #9
  call void @llvm.lifetime.start.p0(i64 8, ptr %7) #9
  call void @llvm.lifetime.start.p0(i64 8, ptr %8) #9
  call void @llvm.lifetime.start.p0(i64 4, ptr %9) #9
  call void @llvm.lifetime.start.p0(i64 8, ptr %10) #9
  %15 = call ptr @table_open(i32 noundef 1417, i32 noundef 3)
  store ptr %15, ptr %4, align 8
  %16 = load ptr, ptr %3, align 8
  %17 = getelementptr inbounds nuw %struct.AlterForeignServerStmt, ptr %16, i32 0, i32 1
  %18 = load ptr, ptr %17, align 8
  %19 = call i64 @CStringGetDatum(ptr noundef %18)
  %20 = call ptr @SearchSysCacheCopy(i32 noundef 31, i64 noundef %19, i64 noundef 0, i64 noundef 0, i64 noundef 0)
  store ptr %20, ptr %5, align 8
  %21 = load ptr, ptr %5, align 8
  %22 = icmp ne ptr %21, null
  br i1 %22, label %38, label %23

23:                                               ; preds = %1
  br label %24

24:                                               ; preds = %23
  br i1 true, label %25, label %27

25:                                               ; preds = %24
  %26 = call zeroext i1 @errstart_cold(i32 noundef 21, ptr noundef null) #11
  br i1 %26, label %29, label %35

27:                                               ; preds = %24
  %28 = call zeroext i1 @errstart(i32 noundef 21, ptr noundef null)
  br i1 %28, label %29, label %35

29:                                               ; preds = %27, %25
  %30 = call i32 @errcode(i32 noundef 67137668)
  %31 = load ptr, ptr %3, align 8
  %32 = getelementptr inbounds nuw %struct.AlterForeignServerStmt, ptr %31, i32 0, i32 1
  %33 = load ptr, ptr %32, align 8
  %34 = call i32 (ptr, ...) @errmsg(ptr noundef @.str.6, ptr noundef %33)
  call void @errfinish(ptr noundef @.str.1, i32 noundef 993, ptr noundef @__func__.AlterForeignServer)
  br label %35

35:                                               ; preds = %29, %27, %25
  unreachable

36:                                               ; No predecessors!
  br label %37

37:                                               ; preds = %36
  br label %38

38:                                               ; preds = %37, %1
  %39 = load ptr, ptr %5, align 8
  %40 = call ptr @GETSTRUCT(ptr noundef %39)
  store ptr %40, ptr %10, align 8
  %41 = load ptr, ptr %10, align 8
  %42 = getelementptr inbounds nuw %struct.FormData_pg_foreign_server, ptr %41, i32 0, i32 0
  %43 = load i32, ptr %42, align 4
  store i32 %43, ptr %9, align 4
  %44 = load i32, ptr %9, align 4
  %45 = call i32 @GetUserId()
  %46 = call zeroext i1 @object_ownercheck(i32 noundef 1417, i32 noundef %44, i32 noundef %45)
  br i1 %46, label %51, label %47

47:                                               ; preds = %38
  %48 = load ptr, ptr %3, align 8
  %49 = getelementptr inbounds nuw %struct.AlterForeignServerStmt, ptr %48, i32 0, i32 1
  %50 = load ptr, ptr %49, align 8
  call void @aclcheck_error(i32 noundef 2, i32 noundef 17, ptr noundef %50)
  br label %51

51:                                               ; preds = %47, %38
  %52 = getelementptr inbounds [8 x i64], ptr %6, i64 0, i64 0
  call void @llvm.memset.p0.i64(ptr align 16 %52, i8 0, i64 64, i1 false)
  %53 = getelementptr inbounds [8 x i8], ptr %7, i64 0, i64 0
  call void @llvm.memset.p0.i64(ptr align 1 %53, i8 0, i64 8, i1 false)
  %54 = getelementptr inbounds [8 x i8], ptr %8, i64 0, i64 0
  call void @llvm.memset.p0.i64(ptr align 1 %54, i8 0, i64 8, i1 false)
  %55 = load ptr, ptr %3, align 8
  %56 = getelementptr inbounds nuw %struct.AlterForeignServerStmt, ptr %55, i32 0, i32 4
  %57 = load i8, ptr %56, align 8, !range !8, !noundef !9
  %58 = trunc i8 %57 to i1
  br i1 %58, label %59, label %75

59:                                               ; preds = %51
  %60 = load ptr, ptr %3, align 8
  %61 = getelementptr inbounds nuw %struct.AlterForeignServerStmt, ptr %60, i32 0, i32 2
  %62 = load ptr, ptr %61, align 8
  %63 = icmp ne ptr %62, null
  br i1 %63, label %64, label %71

64:                                               ; preds = %59
  %65 = load ptr, ptr %3, align 8
  %66 = getelementptr inbounds nuw %struct.AlterForeignServerStmt, ptr %65, i32 0, i32 2
  %67 = load ptr, ptr %66, align 8
  %68 = call ptr @cstring_to_text(ptr noundef %67)
  %69 = call i64 @PointerGetDatum(ptr noundef %68)
  %70 = getelementptr inbounds [8 x i64], ptr %6, i64 0, i64 5
  store i64 %69, ptr %70, align 8
  br label %73

71:                                               ; preds = %59
  %72 = getelementptr inbounds [8 x i8], ptr %7, i64 0, i64 5
  store i8 1, ptr %72, align 1
  br label %73

73:                                               ; preds = %71, %64
  %74 = getelementptr inbounds [8 x i8], ptr %8, i64 0, i64 5
  store i8 1, ptr %74, align 1
  br label %75

75:                                               ; preds = %73, %51
  %76 = load ptr, ptr %3, align 8
  %77 = getelementptr inbounds nuw %struct.AlterForeignServerStmt, ptr %76, i32 0, i32 3
  %78 = load ptr, ptr %77, align 8
  %79 = icmp ne ptr %78, null
  br i1 %79, label %80, label %110

80:                                               ; preds = %75
  call void @llvm.lifetime.start.p0(i64 8, ptr %11) #9
  %81 = load ptr, ptr %10, align 8
  %82 = getelementptr inbounds nuw %struct.FormData_pg_foreign_server, ptr %81, i32 0, i32 3
  %83 = load i32, ptr %82, align 4
  %84 = call ptr @GetForeignDataWrapper(i32 noundef %83)
  store ptr %84, ptr %11, align 8
  call void @llvm.lifetime.start.p0(i64 8, ptr %12) #9
  call void @llvm.lifetime.start.p0(i64 1, ptr %13) #9
  %85 = load ptr, ptr %5, align 8
  %86 = call i64 @SysCacheGetAttr(i32 noundef 32, ptr noundef %85, i16 noundef signext 8, ptr noundef %13)
  store i64 %86, ptr %12, align 8
  %87 = load i8, ptr %13, align 1, !range !8, !noundef !9
  %88 = trunc i8 %87 to i1
  br i1 %88, label %89, label %91

89:                                               ; preds = %80
  %90 = call i64 @PointerGetDatum(ptr noundef null)
  store i64 %90, ptr %12, align 8
  br label %91

91:                                               ; preds = %89, %80
  %92 = load i64, ptr %12, align 8
  %93 = load ptr, ptr %3, align 8
  %94 = getelementptr inbounds nuw %struct.AlterForeignServerStmt, ptr %93, i32 0, i32 3
  %95 = load ptr, ptr %94, align 8
  %96 = load ptr, ptr %11, align 8
  %97 = getelementptr inbounds nuw %struct.ForeignDataWrapper, ptr %96, i32 0, i32 4
  %98 = load i32, ptr %97, align 4
  %99 = call i64 @transformGenericOptions(i32 noundef 1417, i64 noundef %92, ptr noundef %95, i32 noundef %98)
  store i64 %99, ptr %12, align 8
  %100 = load i64, ptr %12, align 8
  %101 = call ptr @DatumGetPointer(i64 noundef %100)
  %102 = icmp ne ptr %101, null
  br i1 %102, label %103, label %106

103:                                              ; preds = %91
  %104 = load i64, ptr %12, align 8
  %105 = getelementptr inbounds [8 x i64], ptr %6, i64 0, i64 7
  store i64 %104, ptr %105, align 8
  br label %108

106:                                              ; preds = %91
  %107 = getelementptr inbounds [8 x i8], ptr %7, i64 0, i64 7
  store i8 1, ptr %107, align 1
  br label %108

108:                                              ; preds = %106, %103
  %109 = getelementptr inbounds [8 x i8], ptr %8, i64 0, i64 7
  store i8 1, ptr %109, align 1
  call void @llvm.lifetime.end.p0(i64 1, ptr %13) #9
  call void @llvm.lifetime.end.p0(i64 8, ptr %12) #9
  call void @llvm.lifetime.end.p0(i64 8, ptr %11) #9
  br label %110

110:                                              ; preds = %108, %75
  %111 = load ptr, ptr %5, align 8
  %112 = load ptr, ptr %4, align 8
  %113 = getelementptr inbounds nuw %struct.RelationData, ptr %112, i32 0, i32 14
  %114 = load ptr, ptr %113, align 8
  %115 = getelementptr inbounds [8 x i64], ptr %6, i64 0, i64 0
  %116 = getelementptr inbounds [8 x i8], ptr %7, i64 0, i64 0
  %117 = getelementptr inbounds [8 x i8], ptr %8, i64 0, i64 0
  %118 = call ptr @heap_modify_tuple(ptr noundef %111, ptr noundef %114, ptr noundef %115, ptr noundef %116, ptr noundef %117)
  store ptr %118, ptr %5, align 8
  %119 = load ptr, ptr %4, align 8
  %120 = load ptr, ptr %5, align 8
  %121 = getelementptr inbounds nuw %struct.HeapTupleData, ptr %120, i32 0, i32 1
  %122 = load ptr, ptr %5, align 8
  call void @CatalogTupleUpdate(ptr noundef %119, ptr noundef %121, ptr noundef %122)
  br label %123

123:                                              ; preds = %110
  %124 = load ptr, ptr @object_access_hook, align 8
  %125 = icmp ne ptr %124, null
  br i1 %125, label %126, label %128

126:                                              ; preds = %123
  %127 = load i32, ptr %9, align 4
  call void @RunObjectPostAlterHook(i32 noundef 1417, i32 noundef %127, i32 noundef 0, i32 noundef 0, i1 noundef zeroext false)
  br label %128

128:                                              ; preds = %126, %123
  br label %129

129:                                              ; preds = %128
  br label %130

130:                                              ; preds = %129
  br label %131

131:                                              ; preds = %130
  %132 = getelementptr inbounds nuw %struct.ObjectAddress, ptr %2, i32 0, i32 0
  store i32 1417, ptr %132, align 4
  %133 = load i32, ptr %9, align 4
  %134 = getelementptr inbounds nuw %struct.ObjectAddress, ptr %2, i32 0, i32 1
  store i32 %133, ptr %134, align 4
  %135 = getelementptr inbounds nuw %struct.ObjectAddress, ptr %2, i32 0, i32 2
  store i32 0, ptr %135, align 4
  br label %136

136:                                              ; preds = %131
  br label %137

137:                                              ; preds = %136
  %138 = load ptr, ptr %5, align 8
  call void @heap_freetuple(ptr noundef %138)
  %139 = load ptr, ptr %4, align 8
  call void @table_close(ptr noundef %139, i32 noundef 3)
  call void @llvm.lifetime.end.p0(i64 8, ptr %10) #9
  call void @llvm.lifetime.end.p0(i64 4, ptr %9) #9
  call void @llvm.lifetime.end.p0(i64 8, ptr %8) #9
  call void @llvm.lifetime.end.p0(i64 8, ptr %7) #9
  call void @llvm.lifetime.end.p0(i64 64, ptr %6) #9
  call void @llvm.lifetime.end.p0(i64 8, ptr %5) #9
  call void @llvm.lifetime.end.p0(i64 8, ptr %4) #9
  call void @llvm.memcpy.p0.p0.i64(ptr align 8 %14, ptr align 4 %2, i64 12, i1 false)
  %140 = load { i64, i32 }, ptr %14, align 8
  ret { i64, i32 } %140
}