; Function Attrs: nounwind uwtable
define dso_local { i64, i32 } @AlterForeignServer(ptr noundef readonly captures(none) %0) local_unnamed_addr #0 {
  %2 = alloca [8 x i64], align 16
  %3 = alloca [8 x i8], align 8
  %4 = alloca [8 x i8], align 8
  %5 = alloca i8, align 1
  call void @llvm.lifetime.start.p0(i64 64, ptr nonnull %2) #9
  call void @llvm.lifetime.start.p0(i64 8, ptr nonnull %3) #9
  call void @llvm.lifetime.start.p0(i64 8, ptr nonnull %4) #9
  %6 = tail call ptr @table_open(i32 noundef 1417, i32 noundef 3) #9
  %7 = getelementptr inbounds nuw i8, ptr %0, i64 8
  %8 = load ptr, ptr %7, align 8
  %9 = ptrtoint ptr %8 to i64
  %10 = tail call ptr @SearchSysCacheCopy(i32 noundef 31, i64 noundef %9, i64 noundef 0, i64 noundef 0, i64 noundef 0) #9
  %.not = icmp eq ptr %10, null
  br i1 %.not, label %11, label %16

11:                                               ; preds = %1
  %12 = tail call zeroext i1 @errstart_cold(i32 noundef 21, ptr noundef null) #11
  tail call void @llvm.assume(i1 %12)
  %13 = tail call i32 @errcode(i32 noundef 67137668) #9
  %14 = load ptr, ptr %7, align 8
  %15 = tail call i32 (ptr, ...) @errmsg(ptr noundef nonnull @.str.6, ptr noundef %14) #9
  tail call void @errfinish(ptr noundef nonnull @.str.1, i32 noundef 993, ptr noundef nonnull @__func__.AlterForeignServer) #9
  unreachable

16:                                               ; preds = %1
  %17 = getelementptr i8, ptr %10, i64 16
  %.val = load ptr, ptr %17, align 8
  %18 = getelementptr inbounds nuw i8, ptr %.val, i64 22
  %19 = load i8, ptr %18, align 2
  %20 = zext i8 %19 to i64
  %21 = getelementptr inbounds nuw i8, ptr %.val, i64 %20
  %22 = load i32, ptr %21, align 4
  %23 = tail call i32 @GetUserId() #9
  %24 = tail call zeroext i1 @object_ownercheck(i32 noundef 1417, i32 noundef %22, i32 noundef %23) #9
  br i1 %24, label %27, label %25

25:                                               ; preds = %16
  %26 = load ptr, ptr %7, align 8
  tail call void @aclcheck_error(i32 noundef 2, i32 noundef 17, ptr noundef %26) #9
  br label %27

27:                                               ; preds = %25, %16
  call void @llvm.memset.p0.i64(ptr noundef nonnull align 16 dereferenceable(64) %2, i8 0, i64 64, i1 false)
  store i64 0, ptr %3, align 8
  store i64 0, ptr %4, align 8
  %28 = getelementptr inbounds nuw i8, ptr %0, i64 32
  %29 = load i8, ptr %28, align 8, !range !4, !noundef !5
  %30 = trunc nuw i8 %29 to i1
  br i1 %30, label %31, label %42

31:                                               ; preds = %27
  %32 = getelementptr inbounds nuw i8, ptr %0, i64 16
  %33 = load ptr, ptr %32, align 8
  %.not30 = icmp eq ptr %33, null
  br i1 %.not30, label %38, label %34

34:                                               ; preds = %31
  %35 = tail call ptr @cstring_to_text(ptr noundef nonnull %33) #9
  %36 = ptrtoint ptr %35 to i64
  %37 = getelementptr inbounds nuw i8, ptr %2, i64 40
  store i64 %36, ptr %37, align 8
  br label %40

38:                                               ; preds = %31
  %39 = getelementptr inbounds nuw i8, ptr %3, i64 5
  store i8 1, ptr %39, align 1
  br label %40

40:                                               ; preds = %38, %34
  %41 = getelementptr inbounds nuw i8, ptr %4, i64 5
  store i8 1, ptr %41, align 1
  br label %42

42:                                               ; preds = %40, %27
  %43 = getelementptr inbounds nuw i8, ptr %0, i64 24
  %44 = load ptr, ptr %43, align 8
  %.not31 = icmp eq ptr %44, null
  br i1 %.not31, label %62, label %45

45:                                               ; preds = %42
  %46 = getelementptr inbounds nuw i8, ptr %21, i64 72
  %47 = load i32, ptr %46, align 4
  %48 = tail call ptr @GetForeignDataWrapper(i32 noundef %47) #9
  call void @llvm.lifetime.start.p0(i64 1, ptr nonnull %5) #9
  %49 = call i64 @SysCacheGetAttr(i32 noundef 32, ptr noundef nonnull %10, i16 noundef signext 8, ptr noundef nonnull %5) #9
  %50 = load i8, ptr %5, align 1, !range !4, !noundef !5
  %51 = trunc nuw i8 %50 to i1
  %spec.select = select i1 %51, i64 0, i64 %49
  %52 = load ptr, ptr %43, align 8
  %53 = getelementptr inbounds nuw i8, ptr %48, i64 20
  %54 = load i32, ptr %53, align 4
  %55 = call i64 @transformGenericOptions(i32 noundef 1417, i64 noundef %spec.select, ptr noundef %52, i32 noundef %54)
  %.not32 = icmp eq i64 %55, 0
  br i1 %.not32, label %58, label %56

56:                                               ; preds = %45
  %57 = getelementptr inbounds nuw i8, ptr %2, i64 56
  store i64 %55, ptr %57, align 8
  br label %60

58:                                               ; preds = %45
  %59 = getelementptr inbounds nuw i8, ptr %3, i64 7
  store i8 1, ptr %59, align 1
  br label %60

60:                                               ; preds = %58, %56
  %61 = getelementptr inbounds nuw i8, ptr %4, i64 7
  store i8 1, ptr %61, align 1
  call void @llvm.lifetime.end.p0(i64 1, ptr nonnull %5) #9
  br label %62

62:                                               ; preds = %60, %42
  %63 = getelementptr inbounds nuw i8, ptr %6, i64 64
  %64 = load ptr, ptr %63, align 8
  %65 = call ptr @heap_modify_tuple(ptr noundef nonnull %10, ptr noundef %64, ptr noundef nonnull %2, ptr noundef nonnull %3, ptr noundef nonnull %4) #9
  %66 = getelementptr inbounds nuw i8, ptr %65, i64 4
  call void @CatalogTupleUpdate(ptr noundef %6, ptr noundef nonnull %66, ptr noundef %65) #9
  %67 = load ptr, ptr @object_access_hook, align 8
  %.not33 = icmp eq ptr %67, null
  br i1 %.not33, label %69, label %68

68:                                               ; preds = %62
  call void @RunObjectPostAlterHook(i32 noundef 1417, i32 noundef %22, i32 noundef 0, i32 noundef 0, i1 noundef zeroext false) #9
  br label %69

69:                                               ; preds = %62, %68
  call void @heap_freetuple(ptr noundef nonnull %65) #9
  call void @table_close(ptr noundef nonnull %6, i32 noundef 3) #9
  call void @llvm.lifetime.end.p0(i64 8, ptr nonnull %4) #9
  call void @llvm.lifetime.end.p0(i64 8, ptr nonnull %3) #9
  call void @llvm.lifetime.end.p0(i64 64, ptr nonnull %2) #9
  %.sroa.227.0.insert.ext = zext i32 %22 to i64
  %.sroa.227.0.insert.shift = shl nuw i64 %.sroa.227.0.insert.ext, 32
  %.sroa.026.0.insert.insert = or disjoint i64 %.sroa.227.0.insert.shift, 1417
  %.fca.0.insert = insertvalue { i64, i32 } poison, i64 %.sroa.026.0.insert.insert, 0
  %.fca.1.insert = insertvalue { i64, i32 } %.fca.0.insert, i32 0, 1
  ret { i64, i32 } %.fca.1.insert
}